---
triple:          'arm64-apple-darwin'
binary-path:     '/Users/ner0/Documents/Git/advent-of-code/advent-of-code-2024/day-4'
relocations:
  - { offset: 0x3727, size: 0x8, addend: 0x0, symName: __ZNSt3__124__put_character_sequenceB8ne190101IcNS_11char_traitsIcEEEERNS_13basic_ostreamIT_T0_EES7_PKS4_m, symObjAddr: 0x1C18, symBinAddr: 0x1000034F4, symSize: 0x1E4 }
  - { offset: 0x536B, size: 0x8, addend: 0x0, symName: __ZNSt3__17getlineB8ne190101IcNS_11char_traitsIcEENS_9allocatorIcEEEERNS_13basic_istreamIT_T0_EES9_RNS_12basic_stringIS6_S7_T1_EE, symObjAddr: 0x444, symBinAddr: 0x100001D20, symSize: 0x58 }
  - { offset: 0x53C3, size: 0x8, addend: 0x0, symName: __ZNSt3__1rsB8ne190101IcNS_11char_traitsIcEENS_9allocatorIcEEEERNS_13basic_istreamIT_T0_EES9_RNS_12basic_stringIS6_S7_T1_EE, symObjAddr: 0x5B0, symBinAddr: 0x100001E8C, symSize: 0x2FC }
  - { offset: 0x549D, size: 0x8, addend: 0x0, symName: __ZNSt3__1lsB8ne190101INS_11char_traitsIcEEEERNS_13basic_ostreamIcT_EES6_c, symObjAddr: 0xAC8, symBinAddr: 0x1000023A4, symSize: 0x34 }
  - { offset: 0x54E3, size: 0x8, addend: 0x0, symName: __ZNSt3__112__to_addressB8ne190101IKcEEPT_S3_, symObjAddr: 0xD84, symBinAddr: 0x100002660, symSize: 0x14 }
  - { offset: 0x554B, size: 0x8, addend: 0x0, symName: __ZNSt3__17getlineB8ne190101IcNS_11char_traitsIcEENS_9allocatorIcEEEERNS_13basic_istreamIT_T0_EES9_RNS_12basic_stringIS6_S7_T1_EES6_, symObjAddr: 0x1060, symBinAddr: 0x10000293C, symSize: 0x224 }
  - { offset: 0x580B, size: 0x8, addend: 0x0, symName: __ZNSt3__19use_facetB8ne190101INS_5ctypeIcEEEERKT_RKNS_6localeE, symObjAddr: 0x1634, symBinAddr: 0x100002F10, symSize: 0x2C }
  - { offset: 0x5E1D, size: 0x8, addend: 0x0, symName: __ZNSt3__118__constexpr_strlenB8ne190101IcEEmPKT_, symObjAddr: 0x1BF4, symBinAddr: 0x1000034D0, symSize: 0x24 }
  - { offset: 0x5E52, size: 0x8, addend: 0x0, symName: __ZNSt3__116__pad_and_outputB8ne190101IcNS_11char_traitsIcEEEENS_19ostreambuf_iteratorIT_T0_EES6_PKS4_S8_S8_RNS_8ios_baseES4_, symObjAddr: 0x1E18, symBinAddr: 0x1000036F4, symSize: 0x214 }
  - { offset: 0x6FD4, size: 0x8, addend: 0x0, symName: __Z15node_initializec, symObjAddr: 0x0, symBinAddr: 0x1000018DC, symSize: 0x38 }
  - { offset: 0x700E, size: 0x8, addend: 0x0, symName: __Z16initialize_arrayNSt3__112basic_stringIcNS_11char_traitsIcEENS_9allocatorIcEEEEPiS6_, symObjAddr: 0x38, symBinAddr: 0x100001914, symSize: 0x284 }
  - { offset: 0x73E4, size: 0x8, addend: 0x0, symName: __ZNSt3__114basic_ifstreamIcNS_11char_traitsIcEEEC1ERKNS_12basic_stringIcS2_NS_9allocatorIcEEEEj, symObjAddr: 0x2BC, symBinAddr: 0x100001B98, symSize: 0x15C }
  - { offset: 0x742C, size: 0x8, addend: 0x0, symName: __ZNSt3__112basic_stringIcNS_11char_traitsIcEENS_9allocatorIcEEEC1B8ne190101Ev, symObjAddr: 0x418, symBinAddr: 0x100001CF4, symSize: 0x2C }
  - { offset: 0x7454, size: 0x8, addend: 0x0, symName: __ZNKSt3__19basic_iosIcNS_11char_traitsIcEEEcvbB8ne190101Ev, symObjAddr: 0x49C, symBinAddr: 0x100001D78, symSize: 0x28 }
  - { offset: 0x7478, size: 0x8, addend: 0x0, symName: __ZNSt3__14fposI11__mbstate_tEC1B8ne190101Ex, symObjAddr: 0x4C4, symBinAddr: 0x100001DA0, symSize: 0x34 }
  - { offset: 0x74AE, size: 0x8, addend: 0x0, symName: __ZNSt3__112basic_stringIcNS_11char_traitsIcEENS_9allocatorIcEEE5clearB8ne190101Ev, symObjAddr: 0x4F8, symBinAddr: 0x100001DD4, symSize: 0x94 }
  - { offset: 0x74E3, size: 0x8, addend: 0x0, symName: __ZNKSt3__19basic_iosIcNS_11char_traitsIcEEE3eofB8ne190101Ev, symObjAddr: 0x58C, symBinAddr: 0x100001E68, symSize: 0x24 }
  - { offset: 0x7507, size: 0x8, addend: 0x0, symName: __ZNKSt3__112basic_stringIcNS_11char_traitsIcEENS_9allocatorIcEEE4sizeB8ne190101Ev, symObjAddr: 0x8AC, symBinAddr: 0x100002188, symSize: 0x54 }
  - { offset: 0x752B, size: 0x8, addend: 0x0, symName: __ZNSt3__112basic_stringIcNS_11char_traitsIcEENS_9allocatorIcEEEixB8ne190101Em, symObjAddr: 0x900, symBinAddr: 0x1000021DC, symSize: 0x48 }
  - { offset: 0x7563, size: 0x8, addend: 0x0, symName: __ZNSt3__114basic_ifstreamIcNS_11char_traitsIcEEED1Ev, symObjAddr: 0x948, symBinAddr: 0x100002224, symSize: 0x40 }
  - { offset: 0x758E, size: 0x8, addend: 0x0, symName: _main, symObjAddr: 0x988, symBinAddr: 0x100002264, symSize: 0x10C }
  - { offset: 0x7601, size: 0x8, addend: 0x0, symName: __ZNSt3__112basic_stringIcNS_11char_traitsIcEENS_9allocatorIcEEEC1B8ne190101ILi0EEEPKc, symObjAddr: 0xA94, symBinAddr: 0x100002370, symSize: 0x34 }
  - { offset: 0x763E, size: 0x8, addend: 0x0, symName: __ZNSt3__114basic_ifstreamIcNS_11char_traitsIcEEED2Ev, symObjAddr: 0xAFC, symBinAddr: 0x1000023D8, symSize: 0x64 }
  - { offset: 0x7675, size: 0x8, addend: 0x0, symName: __ZTv0_n24_NSt3__114basic_ifstreamIcNS_11char_traitsIcEEED1Ev, symObjAddr: 0xB60, symBinAddr: 0x10000243C, symSize: 0x28 }
  - { offset: 0x768B, size: 0x8, addend: 0x0, symName: __ZNSt3__19basic_iosIcNS_11char_traitsIcEEEC2B8ne190101Ev, symObjAddr: 0xB88, symBinAddr: 0x100002464, symSize: 0x3C }
  - { offset: 0x76B3, size: 0x8, addend: 0x0, symName: __ZNSt3__113basic_istreamIcNS_11char_traitsIcEEEC2B8ne190101EPNS_15basic_streambufIcS2_EE, symObjAddr: 0xBC4, symBinAddr: 0x1000024A0, symSize: 0x64 }
  - { offset: 0x76F5, size: 0x8, addend: 0x0, symName: __ZNSt3__113basic_filebufIcNS_11char_traitsIcEEE4openERKNS_12basic_stringIcS2_NS_9allocatorIcEEEEj, symObjAddr: 0xC28, symBinAddr: 0x100002504, symSize: 0x44 }
  - { offset: 0x7739, size: 0x8, addend: 0x0, symName: __ZNSt3__19basic_iosIcNS_11char_traitsIcEEE8setstateB8ne190101Ej, symObjAddr: 0xC6C, symBinAddr: 0x100002548, symSize: 0x2C }
  - { offset: 0x776C, size: 0x8, addend: 0x0, symName: __ZNSt3__18ios_baseC2B8ne190101Ev, symObjAddr: 0xC98, symBinAddr: 0x100002574, symSize: 0x28 }
  - { offset: 0x7794, size: 0x8, addend: 0x0, symName: __ZNSt3__19basic_iosIcNS_11char_traitsIcEEE4initB8ne190101EPNS_15basic_streambufIcS2_EE, symObjAddr: 0xCC0, symBinAddr: 0x10000259C, symSize: 0x40 }
  - { offset: 0x77C9, size: 0x8, addend: 0x0, symName: __ZNSt3__118_SentinelValueFillINS_11char_traitsIcEEE6__initB8ne190101Ev, symObjAddr: 0xD00, symBinAddr: 0x1000025DC, symSize: 0x30 }
  - { offset: 0x77ED, size: 0x8, addend: 0x0, symName: __ZNSt3__111char_traitsIcE3eofB8ne190101Ev, symObjAddr: 0xD30, symBinAddr: 0x10000260C, symSize: 0x8 }
  - { offset: 0x7800, size: 0x8, addend: 0x0, symName: __ZNKSt3__112basic_stringIcNS_11char_traitsIcEENS_9allocatorIcEEE5c_strB8ne190101Ev, symObjAddr: 0xD38, symBinAddr: 0x100002614, symSize: 0x24 }
  - { offset: 0x7824, size: 0x8, addend: 0x0, symName: __ZNKSt3__112basic_stringIcNS_11char_traitsIcEENS_9allocatorIcEEE4dataB8ne190101Ev, symObjAddr: 0xD5C, symBinAddr: 0x100002638, symSize: 0x28 }
  - { offset: 0x7848, size: 0x8, addend: 0x0, symName: __ZNKSt3__112basic_stringIcNS_11char_traitsIcEENS_9allocatorIcEEE13__get_pointerB8ne190101Ev, symObjAddr: 0xD98, symBinAddr: 0x100002674, symSize: 0x54 }
  - { offset: 0x786C, size: 0x8, addend: 0x0, symName: __ZNKSt3__112basic_stringIcNS_11char_traitsIcEENS_9allocatorIcEEE9__is_longB8ne190101Ev, symObjAddr: 0xDEC, symBinAddr: 0x1000026C8, symSize: 0x34 }
  - { offset: 0x7890, size: 0x8, addend: 0x0, symName: __ZNKSt3__112basic_stringIcNS_11char_traitsIcEENS_9allocatorIcEEE18__get_long_pointerB8ne190101Ev, symObjAddr: 0xE20, symBinAddr: 0x1000026FC, symSize: 0x28 }
  - { offset: 0x78B4, size: 0x8, addend: 0x0, symName: __ZNKSt3__112basic_stringIcNS_11char_traitsIcEENS_9allocatorIcEEE19__get_short_pointerB8ne190101Ev, symObjAddr: 0xE48, symBinAddr: 0x100002724, symSize: 0x28 }
  - { offset: 0x78D8, size: 0x8, addend: 0x0, symName: __ZNKSt3__117__compressed_pairINS_12basic_stringIcNS_11char_traitsIcEENS_9allocatorIcEEE5__repES5_E5firstB8ne190101Ev, symObjAddr: 0xE70, symBinAddr: 0x10000274C, symSize: 0x24 }
  - { offset: 0x78FC, size: 0x8, addend: 0x0, symName: __ZNKSt3__122__compressed_pair_elemINS_12basic_stringIcNS_11char_traitsIcEENS_9allocatorIcEEE5__repELi0ELb0EE5__getB8ne190101Ev, symObjAddr: 0xE94, symBinAddr: 0x100002770, symSize: 0x14 }
  - { offset: 0x7920, size: 0x8, addend: 0x0, symName: __ZNSt3__114pointer_traitsIPKcE10pointer_toB8ne190101ERS1_, symObjAddr: 0xEA8, symBinAddr: 0x100002784, symSize: 0x14 }
  - { offset: 0x7942, size: 0x8, addend: 0x0, symName: __ZNSt3__18ios_base8setstateB8ne190101Ej, symObjAddr: 0xEBC, symBinAddr: 0x100002798, symSize: 0x34 }
  - { offset: 0x7977, size: 0x8, addend: 0x0, symName: __ZNSt3__112basic_stringIcNS_11char_traitsIcEENS_9allocatorIcEEEC2B8ne190101Ev, symObjAddr: 0xEF0, symBinAddr: 0x1000027CC, symSize: 0x48 }
  - { offset: 0x79A9, size: 0x8, addend: 0x0, symName: __ZNSt3__117__compressed_pairINS_12basic_stringIcNS_11char_traitsIcEENS_9allocatorIcEEE5__repES5_EC1B8ne190101INS_16__value_init_tagENS_18__default_init_tagEEEOT_OT0_, symObjAddr: 0xF38, symBinAddr: 0x100002814, symSize: 0x3C }
  - { offset: 0x79FF, size: 0x8, addend: 0x0, symName: __ZNKSt3__112basic_stringIcNS_11char_traitsIcEENS_9allocatorIcEEE14__annotate_newB8ne190101Em, symObjAddr: 0xF84, symBinAddr: 0x100002860, symSize: 0x14 }
  - { offset: 0x7A32, size: 0x8, addend: 0x0, symName: __ZNSt3__117__compressed_pairINS_12basic_stringIcNS_11char_traitsIcEENS_9allocatorIcEEE5__repES5_EC2B8ne190101INS_16__value_init_tagENS_18__default_init_tagEEEOT_OT0_, symObjAddr: 0xF98, symBinAddr: 0x100002874, symSize: 0x3C }
  - { offset: 0x7A88, size: 0x8, addend: 0x0, symName: __ZNSt3__122__compressed_pair_elemINS_12basic_stringIcNS_11char_traitsIcEENS_9allocatorIcEEE5__repELi0ELb0EEC2B8ne190101ENS_16__value_init_tagE, symObjAddr: 0xFD4, symBinAddr: 0x1000028B0, symSize: 0x20 }
  - { offset: 0x7ABA, size: 0x8, addend: 0x0, symName: __ZNSt3__122__compressed_pair_elemINS_9allocatorIcEELi1ELb1EEC2B8ne190101ENS_18__default_init_tagE, symObjAddr: 0xFF4, symBinAddr: 0x1000028D0, symSize: 0x2C }
  - { offset: 0x7AEC, size: 0x8, addend: 0x0, symName: __ZNSt3__19allocatorIcEC2B8ne190101Ev, symObjAddr: 0x1020, symBinAddr: 0x1000028FC, symSize: 0x2C }
  - { offset: 0x7B14, size: 0x8, addend: 0x0, symName: __ZNSt3__116__non_trivial_ifILb1ENS_9allocatorIcEEEC2B8ne190101Ev, symObjAddr: 0x104C, symBinAddr: 0x100002928, symSize: 0x14 }
  - { offset: 0x7B3C, size: 0x8, addend: 0x0, symName: __ZNKSt3__19basic_iosIcNS_11char_traitsIcEEE5widenB8ne190101Ec, symObjAddr: 0x1284, symBinAddr: 0x100002B60, symSize: 0x80 }
  - { offset: 0x7B8F, size: 0x8, addend: 0x0, symName: __ZNKSt3__113basic_istreamIcNS_11char_traitsIcEEE6sentrycvbB8ne190101Ev, symObjAddr: 0x1304, symBinAddr: 0x100002BE0, symSize: 0x1C }
  - { offset: 0x7BB3, size: 0x8, addend: 0x0, symName: __ZNKSt3__19basic_iosIcNS_11char_traitsIcEEE5rdbufB8ne190101Ev, symObjAddr: 0x1320, symBinAddr: 0x100002BFC, symSize: 0x24 }
  - { offset: 0x7BD9, size: 0x8, addend: 0x0, symName: __ZNSt3__115basic_streambufIcNS_11char_traitsIcEEE6sbumpcB8ne190101Ev, symObjAddr: 0x1344, symBinAddr: 0x100002C20, symSize: 0x74 }
  - { offset: 0x7BFD, size: 0x8, addend: 0x0, symName: __ZNSt3__111char_traitsIcE11eq_int_typeB8ne190101Eii, symObjAddr: 0x13B8, symBinAddr: 0x100002C94, symSize: 0x24 }
  - { offset: 0x7C2D, size: 0x8, addend: 0x0, symName: __ZNSt3__111char_traitsIcE12to_char_typeB8ne190101Ei, symObjAddr: 0x13DC, symBinAddr: 0x100002CB8, symSize: 0x18 }
  - { offset: 0x7C4F, size: 0x8, addend: 0x0, symName: __ZNSt3__111char_traitsIcE2eqEcc, symObjAddr: 0x13F4, symBinAddr: 0x100002CD0, symSize: 0x24 }
  - { offset: 0x7C7F, size: 0x8, addend: 0x0, symName: __ZNKSt3__112basic_stringIcNS_11char_traitsIcEENS_9allocatorIcEEE8max_sizeB8ne190101Ev, symObjAddr: 0x1418, symBinAddr: 0x100002CF4, symSize: 0xA8 }
  - { offset: 0x7CCF, size: 0x8, addend: 0x0, symName: __ZNSt3__18ios_base18__setstate_nothrowB8ne190101Ej, symObjAddr: 0x14C0, symBinAddr: 0x100002D9C, symSize: 0x5C }
  - { offset: 0x7D02, size: 0x8, addend: 0x0, symName: __ZNKSt3__19basic_iosIcNS_11char_traitsIcEEE10exceptionsB8ne190101Ev, symObjAddr: 0x151C, symBinAddr: 0x100002DF8, symSize: 0x24 }
  - { offset: 0x7D26, size: 0x8, addend: 0x0, symName: __ZNKSt3__18ios_base5rdbufB8ne190101Ev, symObjAddr: 0x1540, symBinAddr: 0x100002E1C, symSize: 0x18 }
  - { offset: 0x7D4A, size: 0x8, addend: 0x0, symName: __ZNSt3__111char_traitsIcE11to_int_typeB8ne190101Ec, symObjAddr: 0x1558, symBinAddr: 0x100002E34, symSize: 0x14 }
  - { offset: 0x7D76, size: 0x8, addend: 0x0, symName: __ZNSt3__116allocator_traitsINS_9allocatorIcEEE8max_sizeB8ne190101IS2_TnNS_9enable_ifIXsr14__has_max_sizeIKT_EE5valueEiE4typeELi0EEEmRKS2_, symObjAddr: 0x156C, symBinAddr: 0x100002E48, symSize: 0x24 }
  - { offset: 0x7DA8, size: 0x8, addend: 0x0, symName: __ZNKSt3__112basic_stringIcNS_11char_traitsIcEENS_9allocatorIcEEE7__allocB8ne190101Ev, symObjAddr: 0x1590, symBinAddr: 0x100002E6C, symSize: 0x24 }
  - { offset: 0x7DCC, size: 0x8, addend: 0x0, symName: __ZNSt3__114numeric_limitsImE3maxB8ne190101Ev, symObjAddr: 0x15B4, symBinAddr: 0x100002E90, symSize: 0x14 }
  - { offset: 0x7DDF, size: 0x8, addend: 0x0, symName: __ZNKSt3__19allocatorIcE8max_sizeB8ne190101Ev, symObjAddr: 0x15C8, symBinAddr: 0x100002EA4, symSize: 0x14 }
  - { offset: 0x7E03, size: 0x8, addend: 0x0, symName: __ZNKSt3__117__compressed_pairINS_12basic_stringIcNS_11char_traitsIcEENS_9allocatorIcEEE5__repES5_E6secondB8ne190101Ev, symObjAddr: 0x15DC, symBinAddr: 0x100002EB8, symSize: 0x24 }
  - { offset: 0x7E27, size: 0x8, addend: 0x0, symName: __ZNKSt3__122__compressed_pair_elemINS_9allocatorIcEELi1ELb1EE5__getB8ne190101Ev, symObjAddr: 0x1600, symBinAddr: 0x100002EDC, symSize: 0x14 }
  - { offset: 0x7E4B, size: 0x8, addend: 0x0, symName: __ZNSt3__123__libcpp_numeric_limitsImLb1EE3maxB8ne190101Ev, symObjAddr: 0x1614, symBinAddr: 0x100002EF0, symSize: 0x8 }
  - { offset: 0x7E5E, size: 0x8, addend: 0x0, symName: __ZNKSt3__18ios_base10exceptionsB8ne190101Ev, symObjAddr: 0x161C, symBinAddr: 0x100002EF8, symSize: 0x18 }
  - { offset: 0x7EB1, size: 0x8, addend: 0x0, symName: __ZNKSt3__15ctypeIcE5widenB8ne190101Ec, symObjAddr: 0x1660, symBinAddr: 0x100002F3C, symSize: 0x34 }
  - { offset: 0x7EE4, size: 0x8, addend: 0x0, symName: __ZNKSt3__19basic_iosIcNS_11char_traitsIcEEE4failB8ne190101Ev, symObjAddr: 0x1694, symBinAddr: 0x100002F70, symSize: 0x24 }
  - { offset: 0x7F08, size: 0x8, addend: 0x0, symName: __ZNKSt3__18ios_base4failB8ne190101Ev, symObjAddr: 0x16B8, symBinAddr: 0x100002F94, symSize: 0x24 }
  - { offset: 0x7F2E, size: 0x8, addend: 0x0, symName: __ZNSt3__14fposI11__mbstate_tEC2B8ne190101Ex, symObjAddr: 0x16DC, symBinAddr: 0x100002FB8, symSize: 0x40 }
  - { offset: 0x7F64, size: 0x8, addend: 0x0, symName: __ZNSt3__111char_traitsIcE6assignB8ne190101ERcRKc, symObjAddr: 0x171C, symBinAddr: 0x100002FF8, symSize: 0x24 }
  - { offset: 0x7F94, size: 0x8, addend: 0x0, symName: __ZNSt3__112basic_stringIcNS_11char_traitsIcEENS_9allocatorIcEEE18__get_long_pointerB8ne190101Ev, symObjAddr: 0x1740, symBinAddr: 0x10000301C, symSize: 0x28 }
  - { offset: 0x7FB8, size: 0x8, addend: 0x0, symName: __ZNSt3__112basic_stringIcNS_11char_traitsIcEENS_9allocatorIcEEE15__set_long_sizeB8ne190101Em, symObjAddr: 0x1768, symBinAddr: 0x100003044, symSize: 0x38 }
  - { offset: 0x7FEB, size: 0x8, addend: 0x0, symName: __ZNSt3__112basic_stringIcNS_11char_traitsIcEENS_9allocatorIcEEE19__get_short_pointerB8ne190101Ev, symObjAddr: 0x17A0, symBinAddr: 0x10000307C, symSize: 0x28 }
  - { offset: 0x800F, size: 0x8, addend: 0x0, symName: __ZNSt3__112basic_stringIcNS_11char_traitsIcEENS_9allocatorIcEEE16__set_short_sizeB8ne190101Em, symObjAddr: 0x17C8, symBinAddr: 0x1000030A4, symSize: 0x78 }
  - { offset: 0x8042, size: 0x8, addend: 0x0, symName: __ZNKSt3__112basic_stringIcNS_11char_traitsIcEENS_9allocatorIcEEE17__annotate_shrinkB8ne190101Em, symObjAddr: 0x1840, symBinAddr: 0x10000311C, symSize: 0x14 }
  - { offset: 0x8075, size: 0x8, addend: 0x0, symName: __ZNSt3__117__compressed_pairINS_12basic_stringIcNS_11char_traitsIcEENS_9allocatorIcEEE5__repES5_E5firstB8ne190101Ev, symObjAddr: 0x1854, symBinAddr: 0x100003130, symSize: 0x24 }
  - { offset: 0x8099, size: 0x8, addend: 0x0, symName: __ZNSt3__122__compressed_pair_elemINS_12basic_stringIcNS_11char_traitsIcEENS_9allocatorIcEEE5__repELi0ELb0EE5__getB8ne190101Ev, symObjAddr: 0x1878, symBinAddr: 0x100003154, symSize: 0x14 }
  - { offset: 0x80BD, size: 0x8, addend: 0x0, symName: __ZNSt3__114pointer_traitsIPcE10pointer_toB8ne190101ERc, symObjAddr: 0x188C, symBinAddr: 0x100003168, symSize: 0x14 }
  - { offset: 0x80DF, size: 0x8, addend: 0x0, symName: __ZNKSt3__18ios_base3eofB8ne190101Ev, symObjAddr: 0x18A0, symBinAddr: 0x10000317C, symSize: 0x20 }
  - { offset: 0x8105, size: 0x8, addend: 0x0, symName: __ZNKSt3__18ios_base5widthB8ne190101Ev, symObjAddr: 0x18C0, symBinAddr: 0x10000319C, symSize: 0x18 }
  - { offset: 0x812B, size: 0x8, addend: 0x0, symName: __ZNSt3__114numeric_limitsIlE3maxB8ne190101Ev, symObjAddr: 0x18D8, symBinAddr: 0x1000031B4, symSize: 0x14 }
  - { offset: 0x813E, size: 0x8, addend: 0x0, symName: __ZNSt3__115basic_streambufIcNS_11char_traitsIcEEE5sgetcB8ne190101Ev, symObjAddr: 0x18EC, symBinAddr: 0x1000031C8, symSize: 0x6C }
  - { offset: 0x8162, size: 0x8, addend: 0x0, symName: __ZNKSt3__15ctypeIcE2isB8ne190101Ejc, symObjAddr: 0x1958, symBinAddr: 0x100003234, symSize: 0x74 }
  - { offset: 0x81A4, size: 0x8, addend: 0x0, symName: __ZNSt3__18ios_base5widthB8ne190101El, symObjAddr: 0x19CC, symBinAddr: 0x1000032A8, symSize: 0x2C }
  - { offset: 0x81E8, size: 0x8, addend: 0x0, symName: __ZNSt3__123__libcpp_numeric_limitsIlLb1EE3maxB8ne190101Ev, symObjAddr: 0x19F8, symBinAddr: 0x1000032D4, symSize: 0x8 }
  - { offset: 0x81FB, size: 0x8, addend: 0x0, symName: __Z7isasciii, symObjAddr: 0x1A00, symBinAddr: 0x1000032DC, symSize: 0x20 }
  - { offset: 0x8227, size: 0x8, addend: 0x0, symName: __ZNKSt3__112basic_stringIcNS_11char_traitsIcEENS_9allocatorIcEEE15__get_long_sizeB8ne190101Ev, symObjAddr: 0x1A20, symBinAddr: 0x1000032FC, symSize: 0x28 }
  - { offset: 0x824B, size: 0x8, addend: 0x0, symName: __ZNKSt3__112basic_stringIcNS_11char_traitsIcEENS_9allocatorIcEEE16__get_short_sizeB8ne190101Ev, symObjAddr: 0x1A48, symBinAddr: 0x100003324, symSize: 0x34 }
  - { offset: 0x826F, size: 0x8, addend: 0x0, symName: __ZNSt3__112basic_stringIcNS_11char_traitsIcEENS_9allocatorIcEEE13__fits_in_ssoB8ne190101Em, symObjAddr: 0x1A7C, symBinAddr: 0x100003358, symSize: 0x1C }
  - { offset: 0x8292, size: 0x8, addend: 0x0, symName: __ZNSt3__112basic_stringIcNS_11char_traitsIcEENS_9allocatorIcEEE13__get_pointerB8ne190101Ev, symObjAddr: 0x1A98, symBinAddr: 0x100003374, symSize: 0x54 }
  - { offset: 0x82B6, size: 0x8, addend: 0x0, symName: __ZNSt3__112basic_stringIcNS_11char_traitsIcEENS_9allocatorIcEEEC2B8ne190101ILi0EEEPKc, symObjAddr: 0x1AEC, symBinAddr: 0x1000033C8, symSize: 0x58 }
  - { offset: 0x82F3, size: 0x8, addend: 0x0, symName: __ZNSt3__117__compressed_pairINS_12basic_stringIcNS_11char_traitsIcEENS_9allocatorIcEEE5__repES5_EC1B8ne190101INS_18__default_init_tagESA_EEOT_OT0_, symObjAddr: 0x1B44, symBinAddr: 0x100003420, symSize: 0x3C }
  - { offset: 0x8349, size: 0x8, addend: 0x0, symName: __ZNSt3__111char_traitsIcE6lengthB8ne190101EPKc, symObjAddr: 0x1B80, symBinAddr: 0x10000345C, symSize: 0x24 }
  - { offset: 0x836B, size: 0x8, addend: 0x0, symName: __ZNSt3__117__compressed_pairINS_12basic_stringIcNS_11char_traitsIcEENS_9allocatorIcEEE5__repES5_EC2B8ne190101INS_18__default_init_tagESA_EEOT_OT0_, symObjAddr: 0x1BA4, symBinAddr: 0x100003480, symSize: 0x3C }
  - { offset: 0x83C1, size: 0x8, addend: 0x0, symName: __ZNSt3__122__compressed_pair_elemINS_12basic_stringIcNS_11char_traitsIcEENS_9allocatorIcEEE5__repELi0ELb0EEC2B8ne190101ENS_18__default_init_tagE, symObjAddr: 0x1BE0, symBinAddr: 0x1000034BC, symSize: 0x14 }
  - { offset: 0x8411, size: 0x8, addend: 0x0, symName: __ZNKSt3__113basic_ostreamIcNS_11char_traitsIcEEE6sentrycvbB8ne190101Ev, symObjAddr: 0x1DFC, symBinAddr: 0x1000036D8, symSize: 0x1C }
  - { offset: 0x8435, size: 0x8, addend: 0x0, symName: __ZNSt3__119ostreambuf_iteratorIcNS_11char_traitsIcEEEC1B8ne190101ERNS_13basic_ostreamIcS2_EE, symObjAddr: 0x202C, symBinAddr: 0x100003908, symSize: 0x34 }
  - { offset: 0x846B, size: 0x8, addend: 0x0, symName: __ZNKSt3__18ios_base5flagsB8ne190101Ev, symObjAddr: 0x2060, symBinAddr: 0x10000393C, symSize: 0x18 }
  - { offset: 0x8491, size: 0x8, addend: 0x0, symName: __ZNKSt3__19basic_iosIcNS_11char_traitsIcEEE4fillB8ne190101Ev, symObjAddr: 0x2078, symBinAddr: 0x100003954, symSize: 0x64 }
  - { offset: 0x84B7, size: 0x8, addend: 0x0, symName: __ZNKSt3__119ostreambuf_iteratorIcNS_11char_traitsIcEEE6failedB8ne190101Ev, symObjAddr: 0x20DC, symBinAddr: 0x1000039B8, symSize: 0x20 }
  - { offset: 0x84DB, size: 0x8, addend: 0x0, symName: __ZNSt3__115basic_streambufIcNS_11char_traitsIcEEE5sputnB8ne190101EPKcl, symObjAddr: 0x20FC, symBinAddr: 0x1000039D8, symSize: 0x3C }
  - { offset: 0x851B, size: 0x8, addend: 0x0, symName: __ZNSt3__112basic_stringIcNS_11char_traitsIcEENS_9allocatorIcEEEC1B8ne190101Emc, symObjAddr: 0x2138, symBinAddr: 0x100003A14, symSize: 0x3C }
  - { offset: 0x8561, size: 0x8, addend: 0x0, symName: __ZNSt3__112basic_stringIcNS_11char_traitsIcEENS_9allocatorIcEEEC2B8ne190101Emc, symObjAddr: 0x2174, symBinAddr: 0x100003A50, symSize: 0x4C }
  - { offset: 0x85A7, size: 0x8, addend: 0x0, symName: __ZNSt3__119ostreambuf_iteratorIcNS_11char_traitsIcEEEC2B8ne190101ERNS_13basic_ostreamIcS2_EE, symObjAddr: 0x21C0, symBinAddr: 0x100003A9C, symSize: 0x54 }
  - { offset: 0x85DD, size: 0x8, addend: 0x0, symName: __ZNKSt3__118_SentinelValueFillINS_11char_traitsIcEEE8__is_setB8ne190101Ev, symObjAddr: 0x2214, symBinAddr: 0x100003AF0, symSize: 0x38 }
  - { offset: 0x8601, size: 0x8, addend: 0x0, symName: __ZNSt3__118_SentinelValueFillINS_11char_traitsIcEEEaSB8ne190101Ei, symObjAddr: 0x224C, symBinAddr: 0x100003B28, symSize: 0x20 }
  - { offset: 0x8634, size: 0x8, addend: 0x0, symName: __ZNKSt3__118_SentinelValueFillINS_11char_traitsIcEEE5__getB8ne190101Ev, symObjAddr: 0x226C, symBinAddr: 0x100003B48, symSize: 0x18 }
...
